(i__main__
Bag_of_Words
p0
(dp1
S'data_array'
p2
(lp3
(lp4
F0.5
aF0.0
aF0.5
aF0.0
aF0.0
aF0.0
aF0.0
aF0.0
aF0.0
aF0.0
aF0.0
aF0.0
aF0.0
aF0.0
aF0.0
aF0.0
aF0.0
aF0.0
aF0.0
aF0.0
aF0.0
aF0.0
aF0.0
aF0.0
aF0.0
aF0.0
aF0.0
aF0.0
aF0.0
aF0.0
aF0.0
aF0.0
aF0.0
aF0.0
aF0.0
aF0.0
aF0.0
aF0.0
aF0.0
aF0.0
aa(lp5
F0.0
aF0.0
aF0.0
aF0.5
aF0.0
aF0.5
aF0.0
aF0.0
aF0.0
aF0.0
aF0.0
aF0.0
aF0.0
aF0.0
aF0.0
aF0.0
aF0.0
aF0.0
aF0.0
aF0.0
aF0.0
aF0.0
aF0.0
aF0.0
aF0.0
aF0.0
aF0.0
aF0.0
aF0.0
aF0.0
aF0.0
aF0.0
aF0.0
aF0.0
aF0.0
aF0.0
aF0.0
aF0.0
aF0.0
aF0.0
aa(lp6
F0.0
aF0.0
aF0.0
aF0.0
aF0.5
aF0.0
aF0.0
aF0.5
aF0.0
aF0.0
aF0.0
aF0.0
aF0.0
aF0.0
aF0.0
aF0.0
aF0.0
aF0.0
aF0.0
aF0.0
aF0.0
aF0.0
aF0.0
aF0.0
aF0.0
aF0.0
aF0.0
aF0.0
aF0.0
aF0.0
aF0.0
aF0.0
aF0.0
aF0.0
aF0.0
aF0.0
aF0.0
aF0.0
aF0.0
aF0.0
aa(lp7
F0.0
aF0.0
aF0.0
aF0.0
aF0.0
aF0.0
aF0.5
aF0.0
aF0.5
aF0.0
aF0.0
aF0.0
aF0.0
aF0.0
aF0.0
aF0.0
aF0.0
aF0.0
aF0.0
aF0.0
aF0.0
aF0.0
aF0.0
aF0.0
aF0.0
aF0.0
aF0.0
aF0.0
aF0.0
aF0.0
aF0.0
aF0.0
aF0.0
aF0.0
aF0.0
aF0.0
aF0.0
aF0.0
aF0.0
aF0.0
aa(lp8
F0.0
aF0.0
aF0.0
aF0.0
aF0.0
aF0.0
aF0.0
aF0.0
aF0.0
aF0.5
aF0.5
aF0.0
aF0.0
aF0.0
aF0.0
aF0.0
aF0.0
aF0.0
aF0.0
aF0.0
aF0.0
aF0.0
aF0.0
aF0.0
aF0.0
aF0.0
aF0.0
aF0.0
aF0.0
aF0.0
aF0.0
aF0.0
aF0.0
aF0.0
aF0.0
aF0.0
aF0.0
aF0.0
aF0.0
aF0.0
aa(lp9
F0.0
aF0.0
aF0.0
aF0.0
aF0.0
aF0.0
aF0.0
aF0.0
aF0.0
aF0.0
aF0.0
aF0.5
aF0.0
aF0.5
aF0.0
aF0.0
aF0.0
aF0.0
aF0.0
aF0.0
aF0.0
aF0.0
aF0.0
aF0.0
aF0.0
aF0.0
aF0.0
aF0.0
aF0.0
aF0.0
aF0.0
aF0.0
aF0.0
aF0.0
aF0.0
aF0.0
aF0.0
aF0.0
aF0.0
aF0.0
aa(lp10
F0.0
aF0.0
aF0.0
aF0.0
aF0.0
aF0.0
aF0.0
aF0.0
aF0.0
aF0.0
aF0.0
aF0.0
aF0.5
aF0.0
aF0.5
aF0.0
aF0.0
aF0.0
aF0.0
aF0.0
aF0.0
aF0.0
aF0.0
aF0.0
aF0.0
aF0.0
aF0.0
aF0.0
aF0.0
aF0.0
aF0.0
aF0.0
aF0.0
aF0.0
aF0.0
aF0.0
aF0.0
aF0.0
aF0.0
aF0.0
aa(lp11
F0.0
aF0.0
aF0.0
aF0.0
aF0.0
aF0.0
aF0.0
aF0.0
aF0.0
aF0.0
aF0.0
aF0.0
aF0.0
aF0.0
aF0.0
aF0.5
aF0.5
aF0.0
aF0.0
aF0.0
aF0.0
aF0.0
aF0.0
aF0.0
aF0.0
aF0.0
aF0.0
aF0.0
aF0.0
aF0.0
aF0.0
aF0.0
aF0.0
aF0.0
aF0.0
aF0.0
aF0.0
aF0.0
aF0.0
aF0.0
aa(lp12
F0.0
aF0.0
aF0.0
aF0.0
aF0.0
aF0.0
aF0.0
aF0.0
aF0.0
aF0.0
aF0.0
aF0.0
aF0.0
aF0.0
aF0.0
aF0.0
aF0.0
aF0.5
aF0.5
aF0.0
aF0.0
aF0.0
aF0.0
aF0.0
aF0.0
aF0.0
aF0.0
aF0.0
aF0.0
aF0.0
aF0.0
aF0.0
aF0.0
aF0.0
aF0.0
aF0.0
aF0.0
aF0.0
aF0.0
aF0.0
aa(lp13
F0.0
aF0.5
aF0.0
aF0.0
aF0.0
aF0.0
aF0.0
aF0.0
aF0.0
aF0.0
aF0.0
aF0.0
aF0.0
aF0.0
aF0.0
aF0.0
aF0.0
aF0.0
aF0.0
aF0.5
aF0.0
aF0.0
aF0.0
aF0.0
aF0.0
aF0.0
aF0.0
aF0.0
aF0.0
aF0.0
aF0.0
aF0.0
aF0.0
aF0.0
aF0.0
aF0.0
aF0.0
aF0.0
aF0.0
aF0.0
aasS'WordDict'
p14
(dp15
S'turtle'
p16
I4
sS'cheese'
p17
I37
sS'antelope'
p18
I6
sS'apple'
p19
I20
sS'crow'
p20
I12
sS'dolphin'
p21
I9
sS'shark'
p22
I10
sS'honey'
p23
I34
sS'crocodile'
p24
I16
sS'lion'
p25
I3
sS'kale'
p26
I39
sS'monkey'
p27
I11
sS'panther'
p28
I13
sS'fox'
p29
I19
sS'frog'
p30
I15
sS'celery'
p31
I24
sS'strawberry'
p32
I23
sS'orange'
p33
I22
sS'jellyfish'
p34
I5
sS'banana'
p35
I21
sS'tart'
p36
I31
sS'butterfly'
p37
I8
sS'coffee'
p38
I27
sS'squirrel'
p39
I7
sS'vulture'
p40
I14
sS'pear'
p41
I30
sS'tribble'
p42
I17
sS'chocolate'
p43
I29
sS'tiger'
p44
I2
sS'cookie'
p45
I33
sS'olive'
p46
I36
sS'bread'
p47
I35
sS'tomato'
p48
I25
sS'burger'
p49
I26
sS'cracker'
p50
I38
sS'dog'
p51
I0
sS'cat'
p52
I1
sS'soup'
p53
I32
sS'cake'
p54
I28
sS'octopus'
p55
I18
ssS'num_features'
p56
I40
sS'objects'
p57
(lp58
(i__main__
Text_Object
p59
(dp60
S'word_freq'
p61
(dp62
S'tiger'
p63
F0.5
sS'dog'
p64
F0.5
ssS'total_words'
p65
I2
sS'obj'
p66
(dp67
Vdate
p68
V2016-12-01
p69
sVtext
p70
Vdog
p71
sVtitle
p72
Vtiger
p73
ssS'words'
p74
(dp75
g63
I1
sg64
I1
ssS'num_words'
p76
I2
sba(i__main__
Text_Object
p77
(dp78
g61
(dp79
S'lion'
p80
F0.5
sS'jellyfish'
p81
F0.5
ssg65
I2
sg66
(dp82
Vdate
p83
V2016-12-02
p84
sVtext
p85
Vlion
p86
sVtitle
p87
Vjellyfish
p88
ssg74
(dp89
g80
I1
sg81
I1
ssg76
I2
sba(i__main__
Text_Object
p90
(dp91
g61
(dp92
S'turtle'
p93
F0.5
sS'squirrel'
p94
F0.5
ssg65
I2
sg66
(dp95
Vdate
p96
V2016-12-03
p97
sVtext
p98
Vturtle
p99
sVtitle
p100
Vsquirrel
p101
ssg74
(dp102
g93
I1
sg94
I1
ssg76
I2
sba(i__main__
Text_Object
p103
(dp104
g61
(dp105
S'butterfly'
p106
F0.5
sS'antelope'
p107
F0.5
ssg65
I2
sg66
(dp108
Vdate
p109
V2016-12-04
p110
sVtext
p111
Vantelope
p112
sVtitle
p113
Vbutterfly
p114
ssg74
(dp115
g106
I1
sg107
I1
ssg76
I2
sba(i__main__
Text_Object
p116
(dp117
g61
(dp118
S'shark'
p119
F0.5
sS'dolphin'
p120
F0.5
ssg65
I2
sg66
(dp121
Vdate
p122
V2016-12-05
p123
sVtext
p124
Vdolphin
p125
sVtitle
p126
Vshark
p127
ssg74
(dp128
g119
I1
sg120
I1
ssg76
I2
sba(i__main__
Text_Object
p129
(dp130
g61
(dp131
S'monkey'
p132
F0.5
sS'panther'
p133
F0.5
ssg65
I2
sg66
(dp134
Vdate
p135
V2016-12-06
p136
sVtext
p137
Vmonkey
p138
sVtitle
p139
Vpanther
p140
ssg74
(dp141
g132
I1
sg133
I1
ssg76
I2
sba(i__main__
Text_Object
p142
(dp143
g61
(dp144
S'crow'
p145
F0.5
sS'vulture'
p146
F0.5
ssg65
I2
sg66
(dp147
Vdate
p148
V2016-12-07
p149
sVtext
p150
Vcrow
p151
sVtitle
p152
Vvulture
p153
ssg74
(dp154
g145
I1
sg146
I1
ssg76
I2
sba(i__main__
Text_Object
p155
(dp156
g61
(dp157
S'crocodile'
p158
F0.5
sS'frog'
p159
F0.5
ssg65
I2
sg66
(dp160
Vdate
p161
V2016-12-08
p162
sVtext
p163
Vfrog
p164
sVtitle
p165
Vcrocodile
p166
ssg74
(dp167
g158
I1
sg159
I1
ssg76
I2
sba(i__main__
Text_Object
p168
(dp169
g61
(dp170
S'octopus'
p171
F0.5
sS'tribble'
p172
F0.5
ssg65
I2
sg66
(dp173
Vdate
p174
V2016-12-09
p175
sVtext
p176
Vtribble
p177
sVtitle
p178
Voctopus
p179
ssg74
(dp180
g171
I1
sg172
I1
ssg76
I2
sba(i__main__
Text_Object
p181
(dp182
g61
(dp183
S'fox'
p184
F0.5
sS'cat'
p185
F0.5
ssg65
I2
sg66
(dp186
Vdate
p187
V2016-12-10
p188
sVtext
p189
Vfox
p190
sVtitle
p191
Vcat
p192
ssg74
(dp193
g184
I1
sg185
I1
ssg76
I2
sbasS'num_objects'
p194
I10
sb.