(i__main__
Bag_of_Words
p0
(dp1
S'data_array'
p2
(lp3
(lp4
F0.0
aF0.0
aF0.0
aF0.0
aF0.0
aF0.0
aF0.0
aF0.0
aF0.0
aF0.0
aF0.0
aF0.0
aF0.0
aF0.0
aF0.0
aF0.0
aF0.0
aF0.0
aF0.0
aF0.0
aF0.5
aF0.5
aF0.0
aF0.0
aF0.0
aF0.0
aF0.0
aF0.0
aF0.0
aF0.0
aF0.0
aF0.0
aF0.0
aF0.0
aF0.0
aF0.0
aF0.0
aF0.0
aF0.0
aF0.0
aa(lp5
F0.0
aF0.0
aF0.0
aF0.0
aF0.0
aF0.0
aF0.0
aF0.0
aF0.0
aF0.0
aF0.0
aF0.0
aF0.0
aF0.0
aF0.0
aF0.0
aF0.0
aF0.0
aF0.0
aF0.0
aF0.0
aF0.0
aF0.5
aF0.5
aF0.0
aF0.0
aF0.0
aF0.0
aF0.0
aF0.0
aF0.0
aF0.0
aF0.0
aF0.0
aF0.0
aF0.0
aF0.0
aF0.0
aF0.0
aF0.0
aa(lp6
F0.0
aF0.0
aF0.0
aF0.0
aF0.0
aF0.0
aF0.0
aF0.0
aF0.0
aF0.0
aF0.0
aF0.0
aF0.0
aF0.0
aF0.0
aF0.0
aF0.0
aF0.0
aF0.0
aF0.0
aF0.0
aF0.0
aF0.0
aF0.0
aF0.5
aF0.5
aF0.0
aF0.0
aF0.0
aF0.0
aF0.0
aF0.0
aF0.0
aF0.0
aF0.0
aF0.0
aF0.0
aF0.0
aF0.0
aF0.0
aa(lp7
F0.0
aF0.0
aF0.0
aF0.0
aF0.0
aF0.0
aF0.0
aF0.0
aF0.0
aF0.0
aF0.0
aF0.0
aF0.0
aF0.0
aF0.0
aF0.0
aF0.0
aF0.0
aF0.0
aF0.0
aF0.0
aF0.0
aF0.0
aF0.0
aF0.0
aF0.0
aF0.5
aF0.5
aF0.0
aF0.0
aF0.0
aF0.0
aF0.0
aF0.0
aF0.0
aF0.0
aF0.0
aF0.0
aF0.0
aF0.0
aa(lp8
F0.0
aF0.0
aF0.0
aF0.0
aF0.0
aF0.0
aF0.0
aF0.0
aF0.0
aF0.0
aF0.0
aF0.0
aF0.0
aF0.0
aF0.0
aF0.0
aF0.0
aF0.0
aF0.0
aF0.0
aF0.0
aF0.0
aF0.0
aF0.0
aF0.0
aF0.0
aF0.0
aF0.0
aF0.5
aF0.5
aF0.0
aF0.0
aF0.0
aF0.0
aF0.0
aF0.0
aF0.0
aF0.0
aF0.0
aF0.0
aa(lp9
F0.0
aF0.0
aF0.0
aF0.0
aF0.0
aF0.0
aF0.0
aF0.0
aF0.0
aF0.0
aF0.0
aF0.0
aF0.0
aF0.0
aF0.0
aF0.0
aF0.0
aF0.0
aF0.0
aF0.0
aF0.0
aF0.0
aF0.0
aF0.0
aF0.0
aF0.0
aF0.0
aF0.0
aF0.0
aF0.0
aF0.5
aF0.5
aF0.0
aF0.0
aF0.0
aF0.0
aF0.0
aF0.0
aF0.0
aF0.0
aa(lp10
F0.0
aF0.0
aF0.0
aF0.0
aF0.0
aF0.0
aF0.0
aF0.0
aF0.0
aF0.0
aF0.0
aF0.0
aF0.0
aF0.0
aF0.0
aF0.0
aF0.0
aF0.0
aF0.0
aF0.0
aF0.0
aF0.0
aF0.0
aF0.0
aF0.0
aF0.0
aF0.0
aF0.0
aF0.0
aF0.0
aF0.0
aF0.0
aF0.5
aF0.5
aF0.0
aF0.0
aF0.0
aF0.0
aF0.0
aF0.0
aa(lp11
F0.0
aF0.0
aF0.0
aF0.0
aF0.0
aF0.0
aF0.0
aF0.0
aF0.0
aF0.0
aF0.0
aF0.0
aF0.0
aF0.0
aF0.0
aF0.0
aF0.0
aF0.0
aF0.0
aF0.0
aF0.0
aF0.0
aF0.0
aF0.0
aF0.0
aF0.0
aF0.0
aF0.0
aF0.0
aF0.0
aF0.0
aF0.0
aF0.0
aF0.0
aF0.5
aF0.5
aF0.0
aF0.0
aF0.0
aF0.0
aa(lp12
F0.0
aF0.0
aF0.0
aF0.0
aF0.0
aF0.0
aF0.0
aF0.0
aF0.0
aF0.0
aF0.0
aF0.0
aF0.0
aF0.0
aF0.0
aF0.0
aF0.0
aF0.0
aF0.0
aF0.0
aF0.0
aF0.0
aF0.0
aF0.0
aF0.0
aF0.0
aF0.0
aF0.0
aF0.0
aF0.0
aF0.0
aF0.0
aF0.0
aF0.0
aF0.0
aF0.0
aF0.5
aF0.5
aF0.0
aF0.0
aa(lp13
F0.0
aF0.0
aF0.0
aF0.0
aF0.0
aF0.0
aF0.0
aF0.0
aF0.0
aF0.0
aF0.0
aF0.0
aF0.0
aF0.0
aF0.0
aF0.0
aF0.0
aF0.0
aF0.0
aF0.0
aF0.0
aF0.0
aF0.0
aF0.0
aF0.0
aF0.0
aF0.0
aF0.0
aF0.0
aF0.0
aF0.0
aF0.0
aF0.0
aF0.0
aF0.0
aF0.0
aF0.0
aF0.0
aF0.5
aF0.5
aasS'WordDict'
p14
(dp15
S'turtle'
p16
I4
sS'cheese'
p17
I37
sS'antelope'
p18
I6
sS'apple'
p19
I20
sS'crow'
p20
I12
sS'dolphin'
p21
I9
sS'shark'
p22
I10
sS'honey'
p23
I34
sS'crocodile'
p24
I16
sS'lion'
p25
I3
sS'kale'
p26
I39
sS'monkey'
p27
I11
sS'panther'
p28
I13
sS'fox'
p29
I19
sS'frog'
p30
I15
sS'celery'
p31
I24
sS'strawberry'
p32
I23
sS'orange'
p33
I22
sS'jellyfish'
p34
I5
sS'banana'
p35
I21
sS'tart'
p36
I31
sS'butterfly'
p37
I8
sS'coffee'
p38
I27
sS'squirrel'
p39
I7
sS'vulture'
p40
I14
sS'pear'
p41
I30
sS'tribble'
p42
I17
sS'chocolate'
p43
I29
sS'tiger'
p44
I2
sS'cookie'
p45
I33
sS'olive'
p46
I36
sS'bread'
p47
I35
sS'tomato'
p48
I25
sS'burger'
p49
I26
sS'cracker'
p50
I38
sS'dog'
p51
I0
sS'cat'
p52
I1
sS'soup'
p53
I32
sS'cake'
p54
I28
sS'octopus'
p55
I18
ssS'num_features'
p56
I40
sS'objects'
p57
(lp58
(i__main__
Text_Object
p59
(dp60
S'word_freq'
p61
(dp62
g19
F0.5
sg35
F0.5
ssS'total_words'
p63
I2
sS'obj'
p64
(dp65
Vdate
p66
V2016-11-01
p67
sVtext
p68
Vapple
p69
sVtitle
p70
Vbanana
p71
ssS'words'
p72
(dp73
g19
I1
sg35
I1
ssS'num_words'
p74
I2
sba(i__main__
Text_Object
p75
(dp76
g61
(dp77
g33
F0.5
sg32
F0.5
ssg63
I2
sg64
(dp78
Vdate
p79
V2016-11-02
p80
sVtext
p81
Vstrawberry
p82
sVtitle
p83
Vorange
p84
ssg72
(dp85
g33
I1
sg32
I1
ssg74
I2
sba(i__main__
Text_Object
p86
(dp87
g61
(dp88
g31
F0.5
sg48
F0.5
ssg63
I2
sg64
(dp89
Vdate
p90
V2016-11-03
p91
sVtext
p92
Vcelery
p93
sVtitle
p94
Vtomato
p95
ssg72
(dp96
g31
I1
sg48
I1
ssg74
I2
sba(i__main__
Text_Object
p97
(dp98
g61
(dp99
g49
F0.5
sg38
F0.5
ssg63
I2
sg64
(dp100
Vdate
p101
V2016-11-04
p102
sVtext
p103
Vcoffee
p104
sVtitle
p105
Vburger
p106
ssg72
(dp107
g49
I1
sg38
I1
ssg74
I2
sba(i__main__
Text_Object
p108
(dp109
g61
(dp110
g54
F0.5
sg43
F0.5
ssg63
I2
sg64
(dp111
Vdate
p112
V2016-11-05
p113
sVtext
p114
Vcake
p115
sVtitle
p116
Vchocolate
p117
ssg72
(dp118
g54
I1
sg43
I1
ssg74
I2
sba(i__main__
Text_Object
p119
(dp120
g61
(dp121
g41
F0.5
sg36
F0.5
ssg63
I2
sg64
(dp122
Vdate
p123
V2016-11-06
p124
sVtext
p125
Vtart
p126
sVtitle
p127
Vpear
p128
ssg72
(dp129
g41
I1
sg36
I1
ssg74
I2
sba(i__main__
Text_Object
p130
(dp131
g61
(dp132
g53
F0.5
sg45
F0.5
ssg63
I2
sg64
(dp133
Vdate
p134
V2016-11-07
p135
sVtext
p136
Vcookie
p137
sVtitle
p138
Vsoup
p139
ssg72
(dp140
g53
I1
sg45
I1
ssg74
I2
sba(i__main__
Text_Object
p141
(dp142
g61
(dp143
g23
F0.5
sg47
F0.5
ssg63
I2
sg64
(dp144
Vdate
p145
V2016-11-08
p146
sVtext
p147
Vhoney
p148
sVtitle
p149
Vbread
p150
ssg72
(dp151
g23
I1
sg47
I1
ssg74
I2
sba(i__main__
Text_Object
p152
(dp153
g61
(dp154
g46
F0.5
sg17
F0.5
ssg63
I2
sg64
(dp155
Vdate
p156
V2016-11-09
p157
sVtext
p158
Vcheese
p159
sVtitle
p160
Volive
p161
ssg72
(dp162
g46
I1
sg17
I1
ssg74
I2
sba(i__main__
Text_Object
p163
(dp164
g61
(dp165
g50
F0.5
sg26
F0.5
ssg63
I2
sg64
(dp166
Vdate
p167
V2016-11-10
p168
sVtext
p169
Vkale
p170
sVtitle
p171
Vcracker
p172
ssg72
(dp173
g50
I1
sg26
I1
ssg74
I2
sbasS'num_objects'
p174
I10
sb.